Certificate:
    Data:
        Version: 1 (0x0)
        Serial Number: 4096 (0x1000)
        Signature Algorithm: sha256WithRSAEncryption
        Issuer: C=US, ST=Boston, O=Test Signing Authority, CN=Test Code Signing Intermediate Authority
        Validity
            Not Before: Mar 25 20:10:48 2026 GMT
            Not After : Jan  8 20:10:48 2300 GMT
        Subject: CN=folderplayer
        Subject Public Key Info:
            Public Key Algorithm: rsaEncryption
                Public-Key: (4096 bit)
                Modulus:
                    00:ab:43:19:0f:8f:57:cd:ef:7d:23:3c:e1:29:96:
                    19:e9:fe:83:74:22:18:77:3b:14:65:67:f5:8c:fe:
                    bf:bd:70:38:e2:0e:20:7f:d5:50:86:91:f9:00:15:
                    5b:a9:30:3e:d8:fc:c3:f5:ca:a3:a9:00:97:60:b6:
                    25:36:74:f0:be:4b:f4:c9:72:c6:5b:13:0e:6f:bd:
                    8e:ad:36:8c:bd:da:c4:f5:44:5e:57:d6:20:4d:01:
                    4b:ab:2f:d2:79:7c:02:40:c0:e3:8e:90:3d:98:20:
                    2e:e5:6e:f9:d8:8d:ee:e4:6d:f7:1c:fc:f9:fe:60:
                    10:62:e2:f0:a7:b7:21:d2:48:32:89:4f:98:4a:11:
                    9a:ee:e6:88:5a:9d:c2:0c:6a:58:6f:eb:18:3b:76:
                    37:94:87:47:8f:c0:8b:01:3d:e6:36:43:43:1b:70:
                    58:96:ed:8a:72:62:92:cd:23:13:89:bd:29:ce:b5:
                    7c:42:6c:ba:31:24:1a:80:7e:17:fb:55:1e:94:fb:
                    ce:f9:1e:4d:af:dc:2d:fa:3f:cd:3c:e0:a5:fb:f6:
                    04:f8:b4:34:1e:91:2d:9a:83:2b:41:fc:19:c3:8e:
                    e0:59:61:b1:67:f8:7d:2e:3e:0b:cd:c6:4b:a1:13:
                    0b:c9:35:b8:5c:ff:d3:7e:88:1a:40:58:09:71:bf:
                    e6:3b:6e:0e:5c:46:88:b0:3b:67:fe:b1:f4:70:57:
                    8b:25:22:2b:72:33:53:bf:ff:db:fe:83:52:22:25:
                    52:4d:2b:1a:e2:3d:db:03:21:e6:0b:d4:b0:4f:be:
                    da:3d:d2:4d:31:0f:ac:4f:4d:17:09:81:26:63:e1:
                    ea:87:2d:99:57:b9:74:0d:7f:1f:94:b6:99:61:9a:
                    f6:03:70:2b:fd:46:14:ea:95:6f:48:0b:e5:b1:5c:
                    4e:07:ba:68:e1:66:c0:12:d3:a0:98:96:85:57:99:
                    65:45:81:e7:12:be:99:9b:02:75:43:f0:d8:18:4d:
                    c2:d5:87:e6:54:17:79:30:11:79:00:c1:3e:47:7f:
                    56:39:be:4b:14:ec:e7:e2:d0:09:52:fa:e9:2c:cb:
                    ef:7c:ec:41:3d:04:96:0d:1c:9f:c3:ca:d5:c3:a8:
                    61:26:88:b2:2a:3e:7e:ac:94:cf:85:3b:b0:62:f9:
                    68:6f:63:7f:a2:d9:ce:9f:30:a2:85:ce:91:dc:a2:
                    77:39:c4:9c:4d:c5:9f:8c:0a:d5:56:1b:91:a1:71:
                    aa:bf:2d:dd:fb:04:21:51:73:2d:2a:24:3b:a9:11:
                    af:91:60:01:70:74:95:32:95:aa:ae:12:2b:3b:1a:
                    5f:96:57:b4:3a:8b:8e:ba:7e:4a:b0:26:bd:13:cc:
                    95:2e:4f
                Exponent: 65537 (0x10001)
    Signature Algorithm: sha256WithRSAEncryption
    Signature Value:
        8e:97:2d:1a:c5:17:9b:5a:c5:21:3b:e6:8b:2f:0c:5a:d0:95:
        5a:03:2b:57:8e:69:49:b9:95:b8:fc:55:f0:ad:66:00:da:5f:
        80:2e:d7:70:49:73:a5:a7:b3:f3:8f:60:a1:c8:b6:7e:14:3b:
        63:35:80:69:00:5f:96:ed:74:b1:ad:16:eb:8f:7c:de:f1:08:
        c3:02:05:f3:36:3f:58:9d:b5:5c:6c:e0:79:21:b0:97:1e:28:
        ea:e6:a7:1c:85:e5:66:92:3b:c6:dc:d3:ed:38:f8:de:6c:b1:
        3d:25:f1:c2:5f:8e:6b:3e:f3:19:49:ce:c8:35:a8:4d:24:ed:
        03:dd:a4:78:f2:16:02:43:57:be:e2:db:67:4f:f8:a3:23:10:
        f0:00:c2:a0:5b:ce:90:d2:5a:d7:02:79:b8:87:ba:df:9b:00:
        59:fe:7d:16:ff:f2:3e:13:a4:67:c3:72:88:c7:31:0e:7c:e4:
        b5:20:09:41:8a:75:36:9c:63:57:b9:3e:63:8f:98:e5:18:81:
        18:bc:cd:38:3d:88:ad:3b:4d:1b:25:98:81:42:12:4e:00:04:
        45:5c:7c:27:ed:e8:f4:36:0f:a9:39:ec:83:05:da:4f:86:c3:
        db:d6:44:d2:ef:80:4a:c8:d2:0e:47:64:bb:da:68:4e:c4:ac:
        b2:e1:9e:dd
-----BEGIN CERTIFICATE-----
MIIEADCCAugCAhAAMA0GCSqGSIb3DQEBCwUAMHIxCzAJBgNVBAYTAlVTMQ8wDQYD
VQQIDAZCb3N0b24xHzAdBgNVBAoMFlRlc3QgU2lnbmluZyBBdXRob3JpdHkxMTAv
BgNVBAMMKFRlc3QgQ29kZSBTaWduaW5nIEludGVybWVkaWF0ZSBBdXRob3JpdHkw
IBcNMjYwMzI1MjAxMDQ4WhgPMjMwMDAxMDgyMDEwNDhaMBcxFTATBgNVBAMMDGZv
bGRlcnBsYXllcjCCAiIwDQYJKoZIhvcNAQEBBQADggIPADCCAgoCggIBAKtDGQ+P
V83vfSM84SmWGen+g3QiGHc7FGVn9Yz+v71wOOIOIH/VUIaR+QAVW6kwPtj8w/XK
o6kAl2C2JTZ08L5L9MlyxlsTDm+9jq02jL3axPVEXlfWIE0BS6sv0nl8AkDA446Q
PZggLuVu+diN7uRt9xz8+f5gEGLi8Ke3IdJIMolPmEoRmu7miFqdwgxqWG/rGDt2
N5SHR4/AiwE95jZDQxtwWJbtinJiks0jE4m9Kc61fEJsujEkGoB+F/tVHpT7zvke
Ta/cLfo/zTzgpfv2BPi0NB6RLZqDK0H8GcOO4FlhsWf4fS4+C83GS6ETC8k1uFz/
036IGkBYCXG/5jtuDlxGiLA7Z/6x9HBXiyUiK3IzU7//2/6DUiIlUk0rGuI92wMh
5gvUsE++2j3STTEPrE9NFwmBJmPh6octmVe5dA1/H5S2mWGa9gNwK/1GFOqVb0gL
5bFcTge6aOFmwBLToJiWhVeZZUWB5xK+mZsCdUPw2BhNwtWH5lQXeTAReQDBPkd/
Vjm+SxTs5+LQCVL66SzL73zsQT0Elg0cn8PK1cOoYSaIsio+fqyUz4U7sGL5aG9j
f6LZzp8wooXOkdyidznEnE3Fn4wK1VYbkaFxqr8t3fsEIVFzLSokO6kRr5FgAXB0
lTKVqq4SKzsaX5ZXtDqLjrp+SrAmvRPMlS5PAgMBAAEwDQYJKoZIhvcNAQELBQAD
ggEBAI6XLRrFF5taxSE75osvDFrQlVoDK1eOaUm5lbj8VfCtZgDaX4Au13BJc6Wn
s/OPYKHItn4UO2M1gGkAX5btdLGtFuuPfN7xCMMCBfM2P1idtVxs4HkhsJceKOrm
pxyF5WaSO8bc0+04+N5ssT0l8cJfjms+8xlJzsg1qE0k7QPdpHjyFgJDV77i22dP
+KMjEPAAwqBbzpDSWtcCebiHut+bAFn+fRb/8j4TpGfDcojHMQ585LUgCUGKdTac
Y1e5PmOPmOUYgRi8zTg9iK07TRslmIFCEk4ABEVcfCft6PQ2D6k57IMF2k+Gw9vW
RNLvgErI0g5HZLvaaE7ErLLhnt0=
-----END CERTIFICATE-----
