Certificate:
    Data:
        Version: 1 (0x0)
        Serial Number: 4096 (0x1000)
        Signature Algorithm: sha256WithRSAEncryption
        Issuer: C=AU, ST=Some-State, O=Internet Widgits Pty Ltd
        Validity
            Not Before: Mar 25 20:01:00 2026 GMT
            Not After : Jan  8 20:01:00 2300 GMT
        Subject: CN=app1
        Subject Public Key Info:
            Public Key Algorithm: rsaEncryption
                Public-Key: (4096 bit)
                Modulus:
                    00:9a:b4:c3:6e:4c:44:37:3b:a1:48:77:a2:26:a7:
                    97:61:69:cd:68:45:24:d7:45:83:eb:52:03:b1:6b:
                    69:cf:86:53:cd:ef:29:cc:e9:fa:97:8c:1e:8e:51:
                    92:b4:8c:6c:86:21:a5:99:24:c7:d5:c3:24:63:67:
                    c6:37:26:ca:8a:8e:ac:b2:63:7a:a4:e0:52:b1:3b:
                    4a:fe:c4:e5:52:70:b7:98:ec:23:0b:34:b1:20:5e:
                    b7:f3:fd:fc:1a:af:64:f3:f4:20:05:f1:c0:ba:6e:
                    a5:17:32:b1:cd:3d:a0:11:33:29:f4:c6:99:33:06:
                    57:e2:72:63:31:a8:0f:56:c6:20:b9:02:06:17:7c:
                    c5:9d:2a:c6:ca:21:bd:be:0a:dc:f9:9a:5a:31:fa:
                    85:a0:5f:6b:8d:b6:df:cc:97:78:64:db:6a:3a:06:
                    a4:a2:54:64:26:c5:80:2a:b3:3a:06:71:a0:9f:36:
                    ca:0c:b6:13:e3:80:6f:6c:75:9a:e8:e3:9f:13:31:
                    44:ee:85:4a:68:c5:51:c8:a9:14:0c:0c:6e:50:e9:
                    d1:04:16:51:55:08:32:cf:0e:ec:20:1c:68:14:55:
                    1e:83:ed:d5:6c:a3:7f:c5:75:88:0c:fd:69:67:c4:
                    e7:8b:f7:7e:d1:6c:89:0b:26:09:d7:8b:bc:83:c7:
                    27:1a:75:6b:49:3e:9a:03:ea:63:b2:6e:3e:d7:30:
                    c0:f3:31:e7:35:1b:56:44:9f:0f:fa:4f:2f:ac:ad:
                    f6:b8:49:16:04:ef:cc:ac:6a:63:9f:59:16:5e:f4:
                    08:d6:40:46:1d:e8:1c:c0:a4:4e:81:6a:3f:bd:cf:
                    8a:1b:a2:88:44:a9:24:88:01:9a:97:fc:40:24:5a:
                    db:75:eb:db:d1:9b:92:5c:1f:9e:e9:b0:49:73:bb:
                    a8:a4:08:75:5e:a6:70:fd:0b:53:36:2f:db:e2:49:
                    52:4b:09:7f:a9:90:54:21:39:aa:0a:df:3c:98:8a:
                    a7:3c:94:9f:45:cc:3f:5a:16:59:ca:87:68:9b:a6:
                    41:01:6c:db:85:7d:fe:fa:3e:9f:55:03:6e:f7:41:
                    70:e1:66:8f:f1:b3:17:59:8b:82:dd:ca:4d:0e:82:
                    bf:c1:da:b0:56:21:45:22:23:a5:60:71:95:4e:c7:
                    e7:08:18:1a:7a:b4:9f:fc:de:62:32:f6:2f:b7:fa:
                    79:a6:2a:23:d2:41:c8:55:71:9b:9e:38:4c:99:39:
                    84:0a:e4:51:fa:54:91:bb:21:72:62:fe:61:eb:27:
                    78:04:98:ee:1a:51:f9:2d:ed:d6:86:ab:da:ea:57:
                    44:35:90:93:2a:28:df:0c:97:22:1c:a5:44:2c:f2:
                    c4:83:df
                Exponent: 65537 (0x10001)
    Signature Algorithm: sha256WithRSAEncryption
    Signature Value:
        a5:a4:f2:48:44:6e:34:8d:b4:bf:87:60:7d:48:97:bb:d0:3f:
        02:ed:d9:82:25:3e:5b:d4:84:2d:8e:76:53:1b:b1:6a:aa:91:
        da:ca:28:a5:29:26:db:4b:ad:d5:64:b4:2d:8d:73:4a:8f:44:
        80:e9:22:83:29:af:33:f4:b3:ac:23:77:d4:0f:30:da:ed:24:
        84:d1:53:f6:b1:bc:d9:91:3a:a7:77:37:45:f4:df:50:1c:a1:
        1f:16:e1:d6:15:f1:a7:de:a5:11:63:93:2c:f4:2f:34:17:20:
        4f:f6:ca:ca:56:37:84:d2:e0:36:dc:e0:4e:4b:91:d0:dc:70:
        05:8f:6e:1a:97:e6:89:b6:6c:38:e5:4f:b3:56:6d:f6:d6:e8:
        51:e4:ad:d8:dd:10:d5:73:ed:3c:fe:27:b0:03:2a:26:d1:d6:
        80:71:0e:23:16:8d:49:c5:7e:a9:b4:36:23:0c:c8:5f:2e:48:
        21:24:64:b1:c3:83:a4:d3:ff:11:33:a0:e7:e0:39:39:1b:4a:
        e5:f8:f8:ab:c6:42:ba:28:12:52:e8:f8:0e:c1:62:85:f2:7c:
        33:81:8b:8d:51:ec:6f:1a:3a:aa:05:5d:17:47:5c:13:cb:1f:
        7c:5d:63:9f:b6:41:da:4b:23:e1:d0:1f:7f:34:85:df:f9:44:
        22:9b:e2:cc
-----BEGIN CERTIFICATE-----
MIIDyzCCArMCAhAAMA0GCSqGSIb3DQEBCwUAMEUxCzAJBgNVBAYTAkFVMRMwEQYD
VQQIDApTb21lLVN0YXRlMSEwHwYDVQQKDBhJbnRlcm5ldCBXaWRnaXRzIFB0eSBM
dGQwIBcNMjYwMzI1MjAwMTAwWhgPMjMwMDAxMDgyMDAxMDBaMA8xDTALBgNVBAMM
BGFwcDEwggIiMA0GCSqGSIb3DQEBAQUAA4ICDwAwggIKAoICAQCatMNuTEQ3O6FI
d6Imp5dhac1oRSTXRYPrUgOxa2nPhlPN7ynM6fqXjB6OUZK0jGyGIaWZJMfVwyRj
Z8Y3JsqKjqyyY3qk4FKxO0r+xOVScLeY7CMLNLEgXrfz/fwar2Tz9CAF8cC6bqUX
MrHNPaARMyn0xpkzBlficmMxqA9WxiC5AgYXfMWdKsbKIb2+Ctz5mlox+oWgX2uN
tt/Ml3hk22o6BqSiVGQmxYAqszoGcaCfNsoMthPjgG9sdZro458TMUTuhUpoxVHI
qRQMDG5Q6dEEFlFVCDLPDuwgHGgUVR6D7dVso3/FdYgM/WlnxOeL937RbIkLJgnX
i7yDxycadWtJPpoD6mOybj7XMMDzMec1G1ZEnw/6Ty+srfa4SRYE78ysamOfWRZe
9AjWQEYd6BzApE6Baj+9z4oboohEqSSIAZqX/EAkWtt169vRm5JcH57psElzu6ik
CHVepnD9C1M2L9viSVJLCX+pkFQhOaoK3zyYiqc8lJ9FzD9aFlnKh2ibpkEBbNuF
ff76Pp9VA273QXDhZo/xsxdZi4Ldyk0Ogr/B2rBWIUUiI6VgcZVOx+cIGBp6tJ/8
3mIy9i+3+nmmKiPSQchVcZueOEyZOYQK5FH6VJG7IXJi/mHrJ3gEmO4aUfkt7daG
q9rqV0Q1kJMqKN8MlyIcpUQs8sSD3wIDAQABMA0GCSqGSIb3DQEBCwUAA4IBAQCl
pPJIRG40jbS/h2B9SJe70D8C7dmCJT5b1IQtjnZTG7FqqpHayiilKSbbS63VZLQt
jXNKj0SA6SKDKa8z9LOsI3fUDzDa7SSE0VP2sbzZkTqndzdF9N9QHKEfFuHWFfGn
3qURY5Ms9C80FyBP9srKVjeE0uA23OBOS5HQ3HAFj24al+aJtmw45U+zVm321uhR
5K3Y3RDVc+08/iewAyom0daAcQ4jFo1JxX6ptDYjDMhfLkghJGSxw4Ok0/8RM6Dn
4Dk5G0rl+PirxkK6KBJS6PgOwWKF8nwzgYuNUexvGjqqBV0XR1wTyx98XWOftkHa
SyPh0B9/NIXf+UQim+LM
-----END CERTIFICATE-----
