Certificate:
    Data:
        Version: 1 (0x0)
        Serial Number: 4098 (0x1002)
        Signature Algorithm: sha256WithRSAEncryption
        Issuer: C=AU, ST=Some-State, O=Internet Widgits Pty Ltd
        Validity
            Not Before: Mar 25 20:01:02 2026 GMT
            Not After : Jan  8 20:01:02 2300 GMT
        Subject: CN=app3
        Subject Public Key Info:
            Public Key Algorithm: rsaEncryption
                Public-Key: (4096 bit)
                Modulus:
                    00:93:e5:5b:b3:3b:07:c1:e4:f5:db:68:2a:14:9f:
                    d0:39:31:f6:3f:9b:ad:37:ec:6c:a4:dd:46:13:84:
                    24:52:10:b4:48:df:fe:62:25:cc:5f:2c:ff:3c:06:
                    32:a6:15:6a:b1:d0:f3:c9:9c:59:e1:f6:b4:db:20:
                    ca:d3:43:63:ef:87:2c:95:00:c0:80:eb:51:9b:cd:
                    00:76:0b:64:07:7d:41:f2:12:a7:da:ea:77:de:a3:
                    ce:80:db:51:e6:8a:cb:eb:0c:25:eb:91:b4:43:c8:
                    5d:eb:96:07:1b:b0:83:12:fa:19:ee:d1:b1:20:58:
                    ae:ee:76:7c:62:29:c2:a6:36:21:ae:d3:7a:f2:2d:
                    e3:c0:4d:77:a7:68:1f:3f:55:4b:42:3a:20:32:10:
                    da:da:ba:0d:4e:d2:f5:7b:e9:06:12:d1:43:3e:41:
                    b0:5c:b3:20:b3:e1:a9:20:6e:35:df:bb:39:ea:bf:
                    78:63:72:d8:af:1e:6f:5b:89:da:d4:2c:27:c8:63:
                    c5:2f:4e:da:d8:17:1d:c7:1c:b3:1a:a9:c1:e0:12:
                    d2:aa:63:e1:fc:56:2a:c7:e1:89:bb:6e:45:d3:89:
                    a6:e0:d4:14:c9:b3:2d:f7:00:8e:95:14:33:f2:f7:
                    3f:04:77:37:36:01:8b:30:d3:4f:48:c9:d6:e5:05:
                    d9:a2:98:fd:4a:9c:09:56:5b:55:3f:b7:2a:4e:90:
                    c9:ec:d5:1a:fb:e9:5a:c9:c0:5e:68:12:75:6b:a7:
                    ff:f0:00:c6:6f:2b:f1:fb:06:f4:9b:ed:6e:d9:e5:
                    30:5d:0a:e1:85:26:7c:99:7a:32:c2:4a:d7:57:5e:
                    48:d4:f1:e0:b5:b9:a4:96:ae:49:bf:c8:21:a3:d5:
                    3f:64:b9:6f:a5:3a:f4:99:86:5d:8a:8f:ff:e3:66:
                    da:86:13:06:a4:8a:af:b3:c2:31:22:38:02:8d:85:
                    f3:e4:fb:8c:00:85:6a:30:1a:ed:e0:32:18:17:ad:
                    e2:71:90:a5:00:2b:e7:61:4c:12:d8:b1:88:6b:09:
                    0d:12:f7:c0:ea:2d:18:fd:28:8d:97:c6:9f:c3:93:
                    79:60:1a:27:5a:90:47:4e:cf:7d:aa:68:59:00:7d:
                    05:97:82:50:49:ff:6a:d7:d3:aa:61:5b:03:7b:81:
                    36:0d:7e:ca:81:89:0b:98:b6:81:c8:04:13:d0:69:
                    62:8d:17:90:ec:5b:b8:5e:f8:d7:43:a6:8b:31:ed:
                    29:2d:cd:c0:71:13:7a:ac:fb:89:55:d7:05:b9:82:
                    22:a1:52:bb:e6:bd:62:8e:e4:99:c6:17:3f:54:23:
                    7f:fa:0d:31:3b:bc:6b:77:ed:e9:01:2e:68:6c:e4:
                    3d:74:ff
                Exponent: 65537 (0x10001)
    Signature Algorithm: sha256WithRSAEncryption
    Signature Value:
        ae:d4:17:46:04:57:f3:c1:35:2c:d4:47:66:4f:99:51:2f:56:
        00:15:8e:ce:d2:83:df:49:c2:3a:4c:bb:d7:a6:af:ca:85:9c:
        05:25:53:8b:e4:cc:0b:a3:54:a9:2f:a2:69:7b:9a:c1:a8:05:
        ec:95:4d:48:16:94:04:6a:5d:d1:1a:a5:67:8b:ff:c1:77:03:
        c6:d7:42:03:c9:aa:8c:17:3b:fd:80:a9:6e:a3:23:63:79:63:
        4f:2f:7f:27:b2:e1:05:99:a2:35:dc:71:c6:16:8f:cd:e5:44:
        97:b4:fc:ce:a7:7a:3b:d7:70:b4:79:5e:0d:41:89:1b:51:e7:
        6b:93:4a:ca:4e:92:04:9a:f8:1a:ae:80:cd:ad:e1:21:98:32:
        93:fc:f1:19:c5:e2:3f:01:53:d1:da:af:34:bb:f7:95:31:cf:
        4a:c9:a0:df:5c:e3:b4:de:fa:51:06:23:5e:b7:ea:5e:4e:6d:
        c8:a9:95:72:32:10:f9:79:f8:e2:fc:4e:93:84:e6:ce:ee:d0:
        e9:b2:02:8c:74:be:09:53:6a:32:99:0f:5f:3e:d5:c0:5f:13:
        53:a9:66:6b:00:95:ad:f8:b5:53:01:2b:14:c3:84:0d:2b:61:
        88:5d:26:aa:a2:bf:82:78:3f:30:b9:28:2b:b0:0f:41:35:59:
        3e:78:bb:68
-----BEGIN CERTIFICATE-----
MIIDyzCCArMCAhACMA0GCSqGSIb3DQEBCwUAMEUxCzAJBgNVBAYTAkFVMRMwEQYD
VQQIDApTb21lLVN0YXRlMSEwHwYDVQQKDBhJbnRlcm5ldCBXaWRnaXRzIFB0eSBM
dGQwIBcNMjYwMzI1MjAwMTAyWhgPMjMwMDAxMDgyMDAxMDJaMA8xDTALBgNVBAMM
BGFwcDMwggIiMA0GCSqGSIb3DQEBAQUAA4ICDwAwggIKAoICAQCT5VuzOwfB5PXb
aCoUn9A5MfY/m6037Gyk3UYThCRSELRI3/5iJcxfLP88BjKmFWqx0PPJnFnh9rTb
IMrTQ2PvhyyVAMCA61GbzQB2C2QHfUHyEqfa6nfeo86A21HmisvrDCXrkbRDyF3r
lgcbsIMS+hnu0bEgWK7udnxiKcKmNiGu03ryLePATXenaB8/VUtCOiAyENraug1O
0vV76QYS0UM+QbBcsyCz4akgbjXfuznqv3hjctivHm9bidrULCfIY8UvTtrYFx3H
HLMaqcHgEtKqY+H8VirH4Ym7bkXTiabg1BTJsy33AI6VFDPy9z8Edzc2AYsw009I
ydblBdmimP1KnAlWW1U/typOkMns1Rr76VrJwF5oEnVrp//wAMZvK/H7BvSb7W7Z
5TBdCuGFJnyZejLCStdXXkjU8eC1uaSWrkm/yCGj1T9kuW+lOvSZhl2Kj//jZtqG
Ewakiq+zwjEiOAKNhfPk+4wAhWowGu3gMhgXreJxkKUAK+dhTBLYsYhrCQ0S98Dq
LRj9KI2Xxp/Dk3lgGidakEdOz32qaFkAfQWXglBJ/2rX06phWwN7gTYNfsqBiQuY
toHIBBPQaWKNF5DsW7he+NdDposx7SktzcBxE3qs+4lV1wW5giKhUrvmvWKO5JnG
Fz9UI3/6DTE7vGt37ekBLmhs5D10/wIDAQABMA0GCSqGSIb3DQEBCwUAA4IBAQCu
1BdGBFfzwTUs1EdmT5lRL1YAFY7O0oPfScI6TLvXpq/KhZwFJVOL5MwLo1SpL6Jp
e5rBqAXslU1IFpQEal3RGqVni//BdwPG10IDyaqMFzv9gKluoyNjeWNPL38nsuEF
maI13HHGFo/N5USXtPzOp3o713C0eV4NQYkbUedrk0rKTpIEmvgaroDNreEhmDKT
/PEZxeI/AVPR2q80u/eVMc9KyaDfXOO03vpRBiNet+peTm3IqZVyMhD5efji/E6T
hObO7tDpsgKMdL4JU2oymQ9fPtXAXxNTqWZrAJWt+LVTASsUw4QNK2GIXSaqor+C
eD8wuSgrsA9BNVk+eLto
-----END CERTIFICATE-----
