Certificate:
    Data:
        Version: 1 (0x0)
        Serial Number: 4097 (0x1001)
        Signature Algorithm: sha256WithRSAEncryption
        Issuer: C=AU, ST=Some-State, O=Internet Widgits Pty Ltd
        Validity
            Not Before: Mar 25 20:01:01 2026 GMT
            Not After : Jan  8 20:01:01 2300 GMT
        Subject: CN=app2
        Subject Public Key Info:
            Public Key Algorithm: rsaEncryption
                Public-Key: (4096 bit)
                Modulus:
                    00:ba:1e:99:31:de:7c:1a:6b:66:c4:af:0a:77:94:
                    7a:1f:69:8a:e8:69:96:c6:81:a8:e5:47:75:05:7e:
                    11:84:75:09:d1:6a:e7:9f:1e:73:84:69:5a:4d:a7:
                    09:5b:ff:4e:2f:3f:96:71:7b:a3:1e:b0:20:a7:76:
                    d9:48:8d:c4:a5:59:bd:cd:56:1f:c9:db:c2:d9:ee:
                    98:38:80:8e:49:dc:4e:65:e4:d7:87:99:61:dd:f3:
                    77:f6:cd:6d:bd:36:1a:0f:87:ab:6e:c3:ff:50:02:
                    71:0d:68:0c:ef:82:be:ba:eb:b7:26:94:1e:65:7b:
                    4b:86:39:dd:cb:3b:bd:76:78:59:31:c7:81:fd:c2:
                    b8:b1:8d:e8:ec:de:cf:9d:60:45:0e:0a:06:a7:25:
                    25:7c:8c:8f:bd:74:33:d9:0f:d7:85:c7:94:ff:4a:
                    dc:7e:a4:33:2a:e3:cd:9b:ac:36:98:ae:8c:90:b4:
                    29:a2:3a:12:96:fc:cb:d0:34:e7:0e:95:5f:2a:d4:
                    3b:7c:03:1f:00:58:bb:7a:17:94:d8:38:62:9d:07:
                    88:86:29:bd:ed:46:95:bb:5a:93:cb:32:0c:c2:6a:
                    f8:ed:96:82:35:db:65:bf:9c:7e:44:df:0e:28:24:
                    68:bb:20:4f:b3:8f:cf:3c:7b:64:00:60:03:56:db:
                    89:38:ed:a0:6a:a3:90:81:d3:e2:6d:5f:d5:06:12:
                    fd:5d:35:bb:5b:92:90:a6:09:6a:ac:24:a8:11:d5:
                    6c:80:e5:82:d1:7e:4e:df:42:7b:a0:6a:ab:d1:b6:
                    8e:62:aa:02:2a:b9:bf:09:8b:9b:3a:c1:ac:cd:a4:
                    cf:fb:42:82:14:92:9e:90:db:2c:9e:4d:e3:df:a2:
                    da:7f:10:ed:cd:ee:2f:a5:94:f9:61:f9:87:50:57:
                    40:3b:86:e7:37:a3:a2:5a:c0:06:a2:7b:f7:01:55:
                    27:da:41:21:2c:8f:49:95:8d:32:04:50:45:bf:8b:
                    6d:47:9e:72:cb:08:ad:3f:fe:83:c1:55:7c:38:8b:
                    aa:ec:e7:4b:73:ad:42:f9:e4:e0:fa:fa:1b:c2:93:
                    62:92:27:18:04:6b:3b:3e:72:b2:fa:66:b9:80:d0:
                    89:21:d2:67:26:0c:55:03:36:c6:0f:48:d3:9f:aa:
                    78:49:8f:e1:cf:9f:4b:78:1d:72:4f:06:c4:56:ec:
                    ae:df:76:52:b8:f1:8c:f5:6b:63:7e:2d:c6:ea:04:
                    36:f7:db:6d:fe:c7:8d:63:7f:83:c8:14:02:18:ee:
                    a8:50:ba:e8:13:d3:17:2b:39:70:10:ed:e9:28:31:
                    8a:78:74:1a:8e:4c:42:c1:b6:c6:f9:1a:10:fa:30:
                    c4:7a:29
                Exponent: 65537 (0x10001)
    Signature Algorithm: sha256WithRSAEncryption
    Signature Value:
        67:d8:cd:51:52:89:85:67:22:85:8a:81:91:9d:7d:0f:4a:8a:
        2c:10:ee:03:b3:5f:94:c2:73:c9:58:af:23:fd:59:ec:5b:c1:
        6e:a2:2b:8a:32:e1:a3:e6:da:f1:84:77:6c:a6:95:8a:25:3e:
        1e:42:a0:c0:a0:2e:c7:fe:51:12:77:6e:04:08:94:95:6c:04:
        16:4d:9f:28:fd:2d:3f:3c:5d:26:49:63:8a:76:bf:8f:68:2b:
        b2:23:c7:0d:e2:b2:56:4b:fc:7e:43:5a:57:9b:74:54:22:55:
        85:02:67:cd:0b:fc:79:e5:b1:e6:ff:bf:33:99:35:76:18:5b:
        af:b1:26:29:13:09:88:ed:28:2c:39:d4:61:a6:9e:27:25:06:
        39:b5:d2:32:58:0a:83:a0:11:d0:40:fb:e1:0b:eb:89:e9:3f:
        5a:7f:be:75:50:f1:d1:8a:16:13:29:3c:cb:82:b0:4f:42:0c:
        de:f7:18:82:10:8c:5a:e5:ba:04:5e:9f:2e:bd:41:c2:48:8a:
        bb:1f:c4:91:dc:a0:26:bd:e2:b3:46:93:47:d5:2e:50:f9:1f:
        5d:72:61:4a:f4:66:cf:a5:61:cc:ab:07:78:2c:5a:1e:3d:07:
        1c:7c:38:25:25:2d:7a:dd:35:51:72:8c:77:e9:34:b0:57:a5:
        b6:c9:22:37
-----BEGIN CERTIFICATE-----
MIIDyzCCArMCAhABMA0GCSqGSIb3DQEBCwUAMEUxCzAJBgNVBAYTAkFVMRMwEQYD
VQQIDApTb21lLVN0YXRlMSEwHwYDVQQKDBhJbnRlcm5ldCBXaWRnaXRzIFB0eSBM
dGQwIBcNMjYwMzI1MjAwMTAxWhgPMjMwMDAxMDgyMDAxMDFaMA8xDTALBgNVBAMM
BGFwcDIwggIiMA0GCSqGSIb3DQEBAQUAA4ICDwAwggIKAoICAQC6Hpkx3nwaa2bE
rwp3lHofaYroaZbGgajlR3UFfhGEdQnRauefHnOEaVpNpwlb/04vP5Zxe6MesCCn
dtlIjcSlWb3NVh/J28LZ7pg4gI5J3E5l5NeHmWHd83f2zW29NhoPh6tuw/9QAnEN
aAzvgr6667cmlB5le0uGOd3LO712eFkxx4H9wrixjejs3s+dYEUOCganJSV8jI+9
dDPZD9eFx5T/Stx+pDMq482brDaYroyQtCmiOhKW/MvQNOcOlV8q1Dt8Ax8AWLt6
F5TYOGKdB4iGKb3tRpW7WpPLMgzCavjtloI122W/nH5E3w4oJGi7IE+zj888e2QA
YANW24k47aBqo5CB0+JtX9UGEv1dNbtbkpCmCWqsJKgR1WyA5YLRfk7fQnugaqvR
to5iqgIqub8Ji5s6wazNpM/7QoIUkp6Q2yyeTePfotp/EO3N7i+llPlh+YdQV0A7
huc3o6JawAaie/cBVSfaQSEsj0mVjTIEUEW/i21HnnLLCK0//oPBVXw4i6rs50tz
rUL55OD6+hvCk2KSJxgEazs+crL6ZrmA0Ikh0mcmDFUDNsYPSNOfqnhJj+HPn0t4
HXJPBsRW7K7fdlK48Yz1a2N+LcbqBDb3223+x41jf4PIFAIY7qhQuugT0xcrOXAQ
7ekoMYp4dBqOTELBtsb5GhD6MMR6KQIDAQABMA0GCSqGSIb3DQEBCwUAA4IBAQBn
2M1RUomFZyKFioGRnX0PSoosEO4Ds1+UwnPJWK8j/VnsW8FuoiuKMuGj5trxhHds
ppWKJT4eQqDAoC7H/lESd24ECJSVbAQWTZ8o/S0/PF0mSWOKdr+PaCuyI8cN4rJW
S/x+Q1pXm3RUIlWFAmfNC/x55bHm/78zmTV2GFuvsSYpEwmI7SgsOdRhpp4nJQY5
tdIyWAqDoBHQQPvhC+uJ6T9af751UPHRihYTKTzLgrBPQgze9xiCEIxa5boEXp8u
vUHCSIq7H8SR3KAmveKzRpNH1S5Q+R9dcmFK9GbPpWHMqwd4LFoePQccfDglJS16
3TVRcox36TSwV6W2ySI3
-----END CERTIFICATE-----
