Certificate:
    Data:
        Version: 1 (0x0)
        Serial Number: 4097 (0x1001)
        Signature Algorithm: sha256WithRSAEncryption
        Issuer: C=US, ST=Boston, O=Test Signing Authority, CN=Test Code Signing Intermediate Authority
        Validity
            Not Before: Mar 25 20:18:22 2026 GMT
            Not After : Jan  8 20:18:22 2300 GMT
        Subject: CN=news
        Subject Public Key Info:
            Public Key Algorithm: rsaEncryption
                Public-Key: (4096 bit)
                Modulus:
                    00:dc:3a:24:9c:4a:e9:b8:29:da:7c:58:8c:d3:a1:
                    f0:c9:a0:3f:bf:29:19:96:4b:fd:07:e4:ff:82:62:
                    1b:a4:52:28:f8:0c:74:10:84:44:9d:98:ad:6f:5a:
                    39:e3:91:c5:98:1a:f0:eb:68:e3:11:88:08:16:c0:
                    19:fb:83:21:68:5c:00:91:96:dc:d8:b6:0e:43:3c:
                    7e:16:74:30:53:9d:7b:b2:ea:f7:41:31:6f:46:3f:
                    d3:66:98:73:dc:f3:71:de:a1:23:6a:71:0b:c5:88:
                    c0:41:8e:3b:fb:66:f9:9d:79:83:05:ad:87:c0:14:
                    0d:c4:9f:8d:1d:c6:bc:74:b4:84:54:49:24:0f:76:
                    5a:7c:40:70:1e:8c:ee:3e:17:c4:01:75:af:9d:6e:
                    9a:b3:00:06:27:b0:f0:2d:2c:53:7a:af:b0:5f:7d:
                    f9:e2:45:50:0f:1b:12:c4:1f:bc:14:34:f8:41:ba:
                    07:94:85:76:79:96:0e:29:7b:17:16:c9:52:1e:99:
                    51:5b:f6:ed:86:16:04:d0:ca:5a:44:9d:c2:16:92:
                    62:2a:2a:6b:a1:ce:6f:a9:77:1c:4f:0a:e4:fe:13:
                    fa:a6:b8:bf:3d:d6:d8:5b:0f:9c:0c:bb:e5:47:62:
                    06:48:ba:73:ea:4a:8d:8e:d3:a1:82:a8:a8:bb:80:
                    68:7a:54:ae:85:64:e9:88:4c:4b:74:f5:33:36:7e:
                    31:ff:ee:54:96:c1:65:9e:0c:38:1f:67:c2:dd:60:
                    59:5d:d4:95:ff:ef:3e:81:d9:ea:4d:4d:79:97:b2:
                    f7:8a:6b:25:93:30:06:2a:29:d7:96:c3:b8:b7:12:
                    c9:08:93:23:04:c3:d7:46:0e:2c:b9:f8:f5:ef:f2:
                    a1:da:98:43:2f:a2:08:93:f8:bd:ec:b2:41:6c:e4:
                    fa:79:33:8a:2c:3d:d8:9a:b0:52:14:1e:44:db:fc:
                    95:fb:57:c2:db:04:fe:4b:25:31:8a:4e:49:b5:2a:
                    18:2e:1e:df:9e:58:df:26:e2:59:84:eb:1e:50:21:
                    d5:f4:8d:4c:98:50:61:95:42:f6:60:31:16:c3:1b:
                    75:d7:75:de:8d:b3:9f:e8:3a:29:c5:87:16:98:6a:
                    9f:43:2f:b0:d0:98:a7:42:11:e4:20:c8:45:06:46:
                    11:d2:e1:70:eb:b2:71:03:a3:b6:92:b5:c6:46:5d:
                    ba:fa:58:24:7b:f7:fe:fb:53:c9:6e:10:2b:1a:fc:
                    50:2f:cf:cb:98:8f:bc:f7:fb:31:74:ea:3d:30:0a:
                    34:f1:67:38:e2:48:a3:4c:c9:8e:be:48:b3:29:cb:
                    a6:ff:fb:0e:28:61:0a:c7:d8:50:d5:2b:51:f9:3e:
                    e8:54:27
                Exponent: 65537 (0x10001)
    Signature Algorithm: sha256WithRSAEncryption
    Signature Value:
        51:bf:a5:14:51:2c:f1:29:e2:5a:e1:d3:31:53:1f:1d:58:2e:
        8f:24:98:ba:82:0c:f3:ae:e6:87:ee:ac:46:19:7b:7b:d3:59:
        60:9a:e0:0f:f4:c7:38:e2:de:df:db:ad:15:73:71:14:1e:0e:
        86:54:20:59:03:0b:d5:70:3a:9c:46:a0:92:8d:fd:bb:d0:88:
        d4:da:49:d2:be:7d:9c:b0:bd:d0:ba:21:1a:f4:22:e9:ca:1a:
        e5:7d:c4:c4:59:4a:3a:49:02:71:b3:f1:f3:b3:4f:38:04:fd:
        6b:c6:57:88:c9:35:60:fa:fe:8a:d2:0f:e8:e0:ce:ac:c3:35:
        21:20:64:76:31:06:a0:ab:cc:40:d5:a8:86:e0:2a:c7:60:27:
        c5:a9:93:50:cd:1c:43:75:a0:71:c2:59:c6:e2:14:de:da:56:
        5f:43:1c:30:ba:de:44:7c:dc:ea:28:a7:37:63:2d:ca:4a:3c:
        7a:cd:d4:2c:34:ad:6f:dc:d9:51:d3:7e:42:22:0f:57:3a:60:
        c1:46:39:f1:fa:c2:93:05:20:07:2d:29:67:8f:04:23:eb:d4:
        2a:f1:cb:f2:30:13:50:38:d1:40:bd:7d:ca:0a:2e:83:a7:17:
        b4:40:45:7e:4e:86:47:ce:f6:c0:5e:7d:15:5e:35:6a:26:49:
        40:af:37:af
-----BEGIN CERTIFICATE-----
MIID+DCCAuACAhABMA0GCSqGSIb3DQEBCwUAMHIxCzAJBgNVBAYTAlVTMQ8wDQYD
VQQIDAZCb3N0b24xHzAdBgNVBAoMFlRlc3QgU2lnbmluZyBBdXRob3JpdHkxMTAv
BgNVBAMMKFRlc3QgQ29kZSBTaWduaW5nIEludGVybWVkaWF0ZSBBdXRob3JpdHkw
IBcNMjYwMzI1MjAxODIyWhgPMjMwMDAxMDgyMDE4MjJaMA8xDTALBgNVBAMMBG5l
d3MwggIiMA0GCSqGSIb3DQEBAQUAA4ICDwAwggIKAoICAQDcOiScSum4Kdp8WIzT
ofDJoD+/KRmWS/0H5P+CYhukUij4DHQQhESdmK1vWjnjkcWYGvDraOMRiAgWwBn7
gyFoXACRltzYtg5DPH4WdDBTnXuy6vdBMW9GP9NmmHPc83HeoSNqcQvFiMBBjjv7
ZvmdeYMFrYfAFA3En40dxrx0tIRUSSQPdlp8QHAejO4+F8QBda+dbpqzAAYnsPAt
LFN6r7BfffniRVAPGxLEH7wUNPhBugeUhXZ5lg4pexcWyVIemVFb9u2GFgTQylpE
ncIWkmIqKmuhzm+pdxxPCuT+E/qmuL891thbD5wMu+VHYgZIunPqSo2O06GCqKi7
gGh6VK6FZOmITEt09TM2fjH/7lSWwWWeDDgfZ8LdYFld1JX/7z6B2epNTXmXsveK
ayWTMAYqKdeWw7i3EskIkyMEw9dGDiy5+PXv8qHamEMvogiT+L3sskFs5Pp5M4os
PdiasFIUHkTb/JX7V8LbBP5LJTGKTkm1KhguHt+eWN8m4lmE6x5QIdX0jUyYUGGV
QvZgMRbDG3XXdd6Ns5/oOinFhxaYap9DL7DQmKdCEeQgyEUGRhHS4XDrsnEDo7aS
tcZGXbr6WCR79/77U8luECsa/FAvz8uYj7z3+zF06j0wCjTxZzjiSKNMyY6+SLMp
y6b/+w4oYQrH2FDVK1H5PuhUJwIDAQABMA0GCSqGSIb3DQEBCwUAA4IBAQBRv6UU
USzxKeJa4dMxUx8dWC6PJJi6ggzzruaH7qxGGXt701lgmuAP9Mc44t7f260Vc3EU
Hg6GVCBZAwvVcDqcRqCSjf270IjU2knSvn2csL3QuiEa9CLpyhrlfcTEWUo6SQJx
s/Hzs084BP1rxleIyTVg+v6K0g/o4M6swzUhIGR2MQagq8xA1aiG4CrHYCfFqZNQ
zRxDdaBxwlnG4hTe2lZfQxwwut5EfNzqKKc3Yy3KSjx6zdQsNK1v3NlR035CIg9X
OmDBRjnx+sKTBSAHLSlnjwQj69Qq8cvyMBNQONFAvX3KCi6Dpxe0QEV+ToZHzvbA
Xn0VXjVqJklArzev
-----END CERTIFICATE-----
